target datalayout = "e-m:e-p270:32:32-p271:32:32-p272:64:64-i64:64-i128:128-f80:128-n8:16:32:64-S128"
target triple = "x86_64-pc-linux-gnu"

%class.ArchiveBuilder = type { ptr, ptr, ptr, ptr, i32, i64, ptr, ptr, ptr, ptr, ptr, ptr, i64, %class.ReservedSpace, %class.VirtualSpace, %class.DumpRegion, %class.DumpRegion, %class.CHeapBitMap, %class.CHeapBitMap, %class.CHeapBitMap, %"class.ArchiveBuilder::SourceObjList", %"class.ArchiveBuilder::SourceObjList", %class.ResizeableResourceHashtable, %class.ResizeableResourceHashtable.0, ptr, ptr, i32, %class.DumpAllocStats, i64, i64, i64 }
%class.ReservedSpace = type <{ ptr, i64, i64, i64, i64, i8, [3 x i8], i32, i8, [7 x i8] }>
%class.VirtualSpace = type { ptr, ptr, ptr, ptr, i8, i8, ptr, ptr, ptr, ptr, ptr, ptr, i64, i64, i64 }
%class.DumpRegion = type { ptr, ptr, ptr, ptr, i64, i8, ptr, ptr }
%class.CHeapBitMap = type <{ %class.GrowableBitMap, i8, [7 x i8] }>
%class.GrowableBitMap = type { %class.BitMap }
%class.BitMap = type { ptr, i64 }
%"class.ArchiveBuilder::SourceObjList" = type { i64, ptr, %class.CHeapBitMap }
%class.ResizeableResourceHashtable = type { %class.ResourceHashtableBase.base, i32 }
%class.ResourceHashtableBase.base = type <{ %class.ResizeableResourceHashtableStorage, i32 }>
%class.ResizeableResourceHashtableStorage = type { i32, ptr }
%class.ResizeableResourceHashtable.0 = type { %class.ResourceHashtableBase.base.3, i32 }
%class.ResourceHashtableBase.base.3 = type <{ %class.ResizeableResourceHashtableStorage.2, i32 }>
%class.ResizeableResourceHashtableStorage.2 = type { i32, ptr }
%class.DumpAllocStats = type { %class.CompactHashtableStats, %class.CompactHashtableStats, [2 x [23 x i32]], [2 x [23 x i32]], i32, i32, i32, i32, i32, i32, i32, i32, i32 }
%class.CompactHashtableStats = type { i32, i32, i32, i32 }
%"class.ArchiveBuilder::SourceObjInfo" = type { i64, i64, i8, i8, i32, i32, i32, i32, ptr, ptr }
%class.ResourceHashtableNode.17 = type { i32, ptr, %"class.ArchiveBuilder::SourceObjInfo", ptr }

; Function Attrs: mustprogress nounwind uwtable
define linkonce_odr hidden noundef ptr @_ZNK34ResizeableResourceHashtableStorageIPhN14ArchiveBuilder13SourceObjInfoELN6AnyObj15allocation_typeE2EL8MEMFLAGS13EE5tableEv(ptr noundef nonnull align 8 dereferenceable(16) %0) #1 comdat align 2 {
  %2 = alloca ptr, align 8
  store ptr %0, ptr %2, align 8
  %3 = load ptr, ptr %2, align 8
  %4 = getelementptr inbounds %class.ResizeableResourceHashtableStorage, ptr %3, i32 0, i32 1
  %5 = load ptr, ptr %4, align 8
  ret ptr %5
}

; Function Attrs: mustprogress nounwind uwtable
define linkonce_odr hidden noundef ptr @_ZNK21ResourceHashtableBaseI34ResizeableResourceHashtableStorageIPhN14ArchiveBuilder13SourceObjInfoELN6AnyObj15allocation_typeE2EL8MEMFLAGS13EES1_S3_LS5_2ELS6_13EXadL_Z14primitive_hashIS1_EjRKT_EEXadL_Z16primitive_equalsIS1_EbSB_SB_EEE5tableEv(ptr noundef nonnull align 8 dereferenceable(20) %0) #1 comdat align 2 {
  %2 = alloca ptr, align 8
  store ptr %0, ptr %2, align 8
  %3 = load ptr, ptr %2, align 8
  %4 = call noundef ptr @_ZNK34ResizeableResourceHashtableStorageIPhN14ArchiveBuilder13SourceObjInfoELN6AnyObj15allocation_typeE2EL8MEMFLAGS13EE5tableEv(ptr noundef nonnull align 8 dereferenceable(16) %3)
  ret ptr %4
}

; Function Attrs: mustprogress nounwind uwtable
define linkonce_odr hidden noundef i32 @_ZNK34ResizeableResourceHashtableStorageIPhN14ArchiveBuilder13SourceObjInfoELN6AnyObj15allocation_typeE2EL8MEMFLAGS13EE10table_sizeEv(ptr noundef nonnull align 8 dereferenceable(16) %0) #1 comdat align 2 {
  %2 = alloca ptr, align 8
  store ptr %0, ptr %2, align 8
  %3 = load ptr, ptr %2, align 8
  %4 = getelementptr inbounds %class.ResizeableResourceHashtableStorage, ptr %3, i32 0, i32 0
  %5 = load i32, ptr %4, align 8
  ret i32 %5
}

; Function Attrs: mustprogress nounwind uwtable
define linkonce_odr hidden noundef zeroext i1 @_Z16primitive_equalsIPhEbRKT_S3_(ptr noundef nonnull align 8 dereferenceable(8) %0, ptr noundef nonnull align 8 dereferenceable(8) %1) #1 comdat {
  %3 = alloca ptr, align 8
  %4 = alloca ptr, align 8
  store ptr %0, ptr %3, align 8
  store ptr %1, ptr %4, align 8
  %5 = load ptr, ptr %3, align 8
  %6 = load ptr, ptr %5, align 8
  %7 = load ptr, ptr %4, align 8
  %8 = load ptr, ptr %7, align 8
  %9 = icmp eq ptr %6, %8
  ret i1 %9
}

; Function Attrs: mustprogress nounwind uwtable
define linkonce_odr hidden noundef ptr @_ZN21ResourceHashtableBaseI34ResizeableResourceHashtableStorageIPhN14ArchiveBuilder13SourceObjInfoELN6AnyObj15allocation_typeE2EL8MEMFLAGS13EES1_S3_LS5_2ELS6_13EXadL_Z14primitive_hashIS1_EjRKT_EEXadL_Z16primitive_equalsIS1_EbSB_SB_EEE9bucket_atEj(ptr noundef nonnull align 8 dereferenceable(20) %0, i32 noundef %1) #1 comdat align 2 {
  %3 = alloca ptr, align 8
  %4 = alloca i32, align 4
  %5 = alloca ptr, align 8
  store ptr %0, ptr %3, align 8
  store i32 %1, ptr %4, align 4
  %6 = load ptr, ptr %3, align 8
  %7 = call noundef ptr @_ZNK21ResourceHashtableBaseI34ResizeableResourceHashtableStorageIPhN14ArchiveBuilder13SourceObjInfoELN6AnyObj15allocation_typeE2EL8MEMFLAGS13EES1_S3_LS5_2ELS6_13EXadL_Z14primitive_hashIS1_EjRKT_EEXadL_Z16primitive_equalsIS1_EbSB_SB_EEE5tableEv(ptr noundef nonnull align 8 dereferenceable(20) %6)
  store ptr %7, ptr %5, align 8
  %8 = load ptr, ptr %5, align 8
  %9 = load i32, ptr %4, align 4
  %10 = zext i32 %9 to i64
  %11 = getelementptr inbounds ptr, ptr %8, i64 %10
  ret ptr %11
}

; Function Attrs: mustprogress nounwind uwtable
define linkonce_odr hidden noundef i32 @_ZNK21ResourceHashtableBaseI34ResizeableResourceHashtableStorageIPhN14ArchiveBuilder13SourceObjInfoELN6AnyObj15allocation_typeE2EL8MEMFLAGS13EES1_S3_LS5_2ELS6_13EXadL_Z14primitive_hashIS1_EjRKT_EEXadL_Z16primitive_equalsIS1_EbSB_SB_EEE10table_sizeEv(ptr noundef nonnull align 8 dereferenceable(20) %0) #1 comdat align 2 {
  %2 = alloca ptr, align 8
  store ptr %0, ptr %2, align 8
  %3 = load ptr, ptr %2, align 8
  %4 = call noundef i32 @_ZNK34ResizeableResourceHashtableStorageIPhN14ArchiveBuilder13SourceObjInfoELN6AnyObj15allocation_typeE2EL8MEMFLAGS13EE10table_sizeEv(ptr noundef nonnull align 8 dereferenceable(16) %3)
  ret i32 %4
}

; Function Attrs: mustprogress nounwind uwtable
define linkonce_odr hidden noundef ptr @_ZN21ResourceHashtableBaseI34ResizeableResourceHashtableStorageIPhN14ArchiveBuilder13SourceObjInfoELN6AnyObj15allocation_typeE2EL8MEMFLAGS13EES1_S3_LS5_2ELS6_13EXadL_Z14primitive_hashIS1_EjRKT_EEXadL_Z16primitive_equalsIS1_EbSB_SB_EEE11lookup_nodeEjRKS1_(ptr noundef nonnull align 8 dereferenceable(20) %0, i32 noundef %1, ptr noundef nonnull align 8 dereferenceable(8) %2) #1 comdat align 2 {
  %4 = alloca ptr, align 8
  %5 = alloca i32, align 4
  %6 = alloca ptr, align 8
  %7 = alloca i32, align 4
  %8 = alloca ptr, align 8
  %9 = alloca ptr, align 8
  store ptr %0, ptr %4, align 8
  store i32 %1, ptr %5, align 4
  store ptr %2, ptr %6, align 8
  %10 = load ptr, ptr %4, align 8
  %11 = load i32, ptr %5, align 4
  %12 = call noundef i32 @_ZNK21ResourceHashtableBaseI34ResizeableResourceHashtableStorageIPhN14ArchiveBuilder13SourceObjInfoELN6AnyObj15allocation_typeE2EL8MEMFLAGS13EES1_S3_LS5_2ELS6_13EXadL_Z14primitive_hashIS1_EjRKT_EEXadL_Z16primitive_equalsIS1_EbSB_SB_EEE10table_sizeEv(ptr noundef nonnull align 8 dereferenceable(20) %10)
  %13 = urem i32 %11, %12
  store i32 %13, ptr %7, align 4
  %14 = load i32, ptr %7, align 4
  %15 = call noundef ptr @_ZN21ResourceHashtableBaseI34ResizeableResourceHashtableStorageIPhN14ArchiveBuilder13SourceObjInfoELN6AnyObj15allocation_typeE2EL8MEMFLAGS13EES1_S3_LS5_2ELS6_13EXadL_Z14primitive_hashIS1_EjRKT_EEXadL_Z16primitive_equalsIS1_EbSB_SB_EEE9bucket_atEj(ptr noundef nonnull align 8 dereferenceable(20) %10, i32 noundef %14)
  store ptr %15, ptr %8, align 8
  br label %16

16:                                               ; preds = %34, %3
  %17 = load ptr, ptr %8, align 8
  %18 = load ptr, ptr %17, align 8
  %19 = icmp ne ptr %18, null
  br i1 %19, label %20, label %37

20:                                               ; preds = %16
  %21 = load ptr, ptr %8, align 8
  %22 = load ptr, ptr %21, align 8
  store ptr %22, ptr %9, align 8
  %23 = load ptr, ptr %9, align 8
  %24 = getelementptr inbounds %class.ResourceHashtableNode.17, ptr %23, i32 0, i32 0
  %25 = load i32, ptr %24, align 8
  %26 = load i32, ptr %5, align 4
  %27 = icmp eq i32 %25, %26
  br i1 %27, label %28, label %34

28:                                               ; preds = %20
  %29 = load ptr, ptr %6, align 8
  %30 = load ptr, ptr %9, align 8
  %31 = getelementptr inbounds %class.ResourceHashtableNode.17, ptr %30, i32 0, i32 1
  %32 = call noundef zeroext i1 @_Z16primitive_equalsIPhEbRKT_S3_(ptr noundef nonnull align 8 dereferenceable(8) %29, ptr noundef nonnull align 8 dereferenceable(8) %31)
  br i1 %32, label %33, label %34

33:                                               ; preds = %28
  br label %37

34:                                               ; preds = %28, %20
  %35 = load ptr, ptr %9, align 8
  %36 = getelementptr inbounds %class.ResourceHashtableNode.17, ptr %35, i32 0, i32 3
  store ptr %36, ptr %8, align 8
  br label %16, !llvm.loop !51

37:                                               ; preds = %33, %16
  %38 = load ptr, ptr %8, align 8
  ret ptr %38
}

; Function Attrs: mustprogress nounwind uwtable
define linkonce_odr hidden noundef ptr @_ZNK21ResourceHashtableBaseI34ResizeableResourceHashtableStorageIPhN14ArchiveBuilder13SourceObjInfoELN6AnyObj15allocation_typeE2EL8MEMFLAGS13EES1_S3_LS5_2ELS6_13EXadL_Z14primitive_hashIS1_EjRKT_EEXadL_Z16primitive_equalsIS1_EbSB_SB_EEE11lookup_nodeEjRKS1_(ptr noundef nonnull align 8 dereferenceable(20) %0, i32 noundef %1, ptr noundef nonnull align 8 dereferenceable(8) %2) #1 comdat align 2 {
  %4 = alloca ptr, align 8
  %5 = alloca i32, align 4
  %6 = alloca ptr, align 8
  store ptr %0, ptr %4, align 8
  store i32 %1, ptr %5, align 4
  store ptr %2, ptr %6, align 8
  %7 = load ptr, ptr %4, align 8
  %8 = load i32, ptr %5, align 4
  %9 = load ptr, ptr %6, align 8
  %10 = call noundef ptr @_ZN21ResourceHashtableBaseI34ResizeableResourceHashtableStorageIPhN14ArchiveBuilder13SourceObjInfoELN6AnyObj15allocation_typeE2EL8MEMFLAGS13EES1_S3_LS5_2ELS6_13EXadL_Z14primitive_hashIS1_EjRKT_EEXadL_Z16primitive_equalsIS1_EbSB_SB_EEE11lookup_nodeEjRKS1_(ptr noundef nonnull align 8 dereferenceable(20) %7, i32 noundef %8, ptr noundef nonnull align 8 dereferenceable(8) %9)
  ret ptr %10
}

; Function Attrs: mustprogress nounwind uwtable
define linkonce_odr hidden noundef i32 @_Z14primitive_hashIPhEjRKT_(ptr noundef nonnull align 8 dereferenceable(8) %0) #1 comdat {
  %2 = alloca ptr, align 8
  %3 = alloca i32, align 4
  store ptr %0, ptr %2, align 8
  %4 = load ptr, ptr %2, align 8
  %5 = load ptr, ptr %4, align 8
  %6 = ptrtoint ptr %5 to i64
  %7 = trunc i64 %6 to i32
  store i32 %7, ptr %3, align 4
  %8 = load i32, ptr %3, align 4
  %9 = load i32, ptr %3, align 4
  %10 = lshr i32 %9, 3
  %11 = xor i32 %8, %10
  ret i32 %11
}

; Function Attrs: mustprogress nounwind uwtable
define linkonce_odr hidden noundef ptr @_ZNK14ArchiveBuilder13SourceObjInfo13buffered_addrEv(ptr noundef nonnull align 8 dereferenceable(56) %0) #1 comdat align 2 {
  %2 = alloca ptr, align 8
  store ptr %0, ptr %2, align 8
  %3 = load ptr, ptr %2, align 8
  %4 = getelementptr inbounds %"class.ArchiveBuilder::SourceObjInfo", ptr %3, i32 0, i32 4
  %5 = load i32, ptr %4, align 4
  %6 = icmp ne i32 %5, 2
  br i1 %6, label %7, label %8

7:                                                ; preds = %1
  br label %8

8:                                                ; preds = %7, %1
  %9 = getelementptr inbounds %"class.ArchiveBuilder::SourceObjInfo", ptr %3, i32 0, i32 9
  %10 = load ptr, ptr %9, align 8
  ret ptr %10
}

; Function Attrs: mustprogress nounwind uwtable
define linkonce_odr hidden noundef ptr @_ZNK21ResourceHashtableBaseI34ResizeableResourceHashtableStorageIPhN14ArchiveBuilder13SourceObjInfoELN6AnyObj15allocation_typeE2EL8MEMFLAGS13EES1_S3_LS5_2ELS6_13EXadL_Z14primitive_hashIS1_EjRKT_EEXadL_Z16primitive_equalsIS1_EbSB_SB_EEE3getERKS1_(ptr noundef nonnull align 8 dereferenceable(20) %0, ptr noundef nonnull align 8 dereferenceable(8) %1) #1 comdat align 2 {
  %3 = alloca ptr, align 8
  %4 = alloca ptr, align 8
  %5 = alloca ptr, align 8
  %6 = alloca i32, align 4
  %7 = alloca ptr, align 8
  store ptr %0, ptr %4, align 8
  store ptr %1, ptr %5, align 8
  %8 = load ptr, ptr %4, align 8
  %9 = load ptr, ptr %5, align 8
  %10 = call noundef i32 @_Z14primitive_hashIPhEjRKT_(ptr noundef nonnull align 8 dereferenceable(8) %9)
  store i32 %10, ptr %6, align 4
  %11 = load i32, ptr %6, align 4
  %12 = load ptr, ptr %5, align 8
  %13 = call noundef ptr @_ZNK21ResourceHashtableBaseI34ResizeableResourceHashtableStorageIPhN14ArchiveBuilder13SourceObjInfoELN6AnyObj15allocation_typeE2EL8MEMFLAGS13EES1_S3_LS5_2ELS6_13EXadL_Z14primitive_hashIS1_EjRKT_EEXadL_Z16primitive_equalsIS1_EbSB_SB_EEE11lookup_nodeEjRKS1_(ptr noundef nonnull align 8 dereferenceable(20) %8, i32 noundef %11, ptr noundef nonnull align 8 dereferenceable(8) %12)
  store ptr %13, ptr %7, align 8
  %14 = load ptr, ptr %7, align 8
  %15 = load ptr, ptr %14, align 8
  %16 = icmp ne ptr %15, null
  br i1 %16, label %17, label %21

17:                                               ; preds = %2
  %18 = load ptr, ptr %7, align 8
  %19 = load ptr, ptr %18, align 8
  %20 = getelementptr inbounds %class.ResourceHashtableNode.17, ptr %19, i32 0, i32 2
  store ptr %20, ptr %3, align 8
  br label %22

21:                                               ; preds = %2
  store ptr null, ptr %3, align 8
  br label %22

22:                                               ; preds = %21, %17
  %23 = load ptr, ptr %3, align 8
  ret ptr %23
}

; Function Attrs: mustprogress nounwind uwtable
define hidden noundef ptr @_ZNK14ArchiveBuilder17get_buffered_addrEPh(ptr noundef nonnull align 8 dereferenceable(1080) %0, ptr noundef %1) #1 align 2 {
  %3 = alloca ptr, align 8
  %4 = alloca ptr, align 8
  %5 = alloca ptr, align 8
  store ptr %0, ptr %3, align 8
  store ptr %1, ptr %4, align 8
  %6 = load ptr, ptr %3, align 8
  %7 = getelementptr inbounds %class.ArchiveBuilder, ptr %6, i32 0, i32 22
  %8 = call noundef ptr @_ZNK21ResourceHashtableBaseI34ResizeableResourceHashtableStorageIPhN14ArchiveBuilder13SourceObjInfoELN6AnyObj15allocation_typeE2EL8MEMFLAGS13EES1_S3_LS5_2ELS6_13EXadL_Z14primitive_hashIS1_EjRKT_EEXadL_Z16primitive_equalsIS1_EbSB_SB_EEE3getERKS1_(ptr noundef nonnull align 8 dereferenceable(20) %7, ptr noundef nonnull align 8 dereferenceable(8) %4)
  store ptr %8, ptr %5, align 8
  %9 = load ptr, ptr %5, align 8
  %10 = call noundef ptr @_ZNK14ArchiveBuilder13SourceObjInfo13buffered_addrEv(ptr noundef nonnull align 8 dereferenceable(56) %9)
  ret ptr %10
}

; Function Attrs: mustprogress nounwind uwtable
define linkonce_odr hidden noundef zeroext i1 @_ZNK14ArchiveBuilder27is_in_mapped_static_archiveIPhEEbT_(ptr noundef nonnull align 8 dereferenceable(1080) %0, ptr noundef %1) #1 comdat align 2 {
  %3 = alloca ptr, align 8
  %4 = alloca ptr, align 8
  store ptr %0, ptr %3, align 8
  store ptr %1, ptr %4, align 8
  %5 = load ptr, ptr %3, align 8
  %6 = getelementptr inbounds %class.ArchiveBuilder, ptr %5, i32 0, i32 10
  %7 = load ptr, ptr %6, align 8
  %8 = load ptr, ptr %4, align 8
  %9 = icmp ule ptr %7, %8
  br i1 %9, label %10, label %15

10:                                               ; preds = %2
  %11 = load ptr, ptr %4, align 8
  %12 = getelementptr inbounds %class.ArchiveBuilder, ptr %5, i32 0, i32 11
  %13 = load ptr, ptr %12, align 8
  %14 = icmp ult ptr %11, %13
  br label %15

15:                                               ; preds = %10, %2
  %16 = phi i1 [ false, %2 ], [ %14, %10 ]
  ret i1 %16
}

; Function Attrs: mustprogress nounwind uwtable
define hidden void @_ZN14ArchiveBuilder34mark_and_relocate_to_buffered_addrEPPh(ptr noundef nonnull align 8 dereferenceable(1080) %0, ptr noundef %1) #1 align 2 {
  %3 = alloca ptr, align 8
  %4 = alloca ptr, align 8
  store ptr %0, ptr %3, align 8
  store ptr %1, ptr %4, align 8
  %5 = load ptr, ptr %3, align 8
  %6 = load ptr, ptr %4, align 8
  %7 = load ptr, ptr %6, align 8
  %8 = call noundef zeroext i1 @_ZNK14ArchiveBuilder27is_in_mapped_static_archiveIPhEEbT_(ptr noundef nonnull align 8 dereferenceable(1080) %5, ptr noundef %7)
  br i1 %8, label %14, label %9

9:                                                ; preds = %2
  %10 = load ptr, ptr %4, align 8
  %11 = load ptr, ptr %10, align 8
  %12 = call noundef ptr @_ZNK14ArchiveBuilder17get_buffered_addrEPh(ptr noundef nonnull align 8 dereferenceable(1080) %5, ptr noundef %11)
  %13 = load ptr, ptr %4, align 8
  store ptr %12, ptr %13, align 8
  br label %14

14:                                               ; preds = %9, %2
  %15 = load ptr, ptr %4, align 8
  call void @_ZN16ArchivePtrMarker12mark_pointerEPPh(ptr noundef %15)
  ret void
}