; Function Attrs: mustprogress nounwind uwtable
define hidden void @_ZN14ArchiveBuilder34mark_and_relocate_to_buffered_addrEPPh(ptr nocapture noundef nonnull readonly align 8 dereferenceable(1080) %0, ptr noundef %1) local_unnamed_addr #1 align 2 {
  %3 = load ptr, ptr %1, align 8
  %4 = getelementptr inbounds i8, ptr %0, i64 80
  %5 = load ptr, ptr %4, align 8
  %.not.i = icmp ule ptr %5, %3
  %6 = getelementptr inbounds i8, ptr %0, i64 88
  %7 = load ptr, ptr %6, align 8
  %8 = icmp ugt ptr %7, %3
  %9 = select i1 %.not.i, i1 %8, i1 false
  br i1 %9, label %37, label %10

10:                                               ; preds = %2
  %11 = getelementptr inbounds i8, ptr %0, i64 552
  %12 = ptrtoint ptr %3 to i64
  %13 = trunc i64 %12 to i32
  %14 = lshr i32 %13, 3
  %15 = xor i32 %14, %13
  %16 = load i32, ptr %11, align 8
  %17 = urem i32 %15, %16
  %18 = getelementptr inbounds i8, ptr %0, i64 560
  %19 = load ptr, ptr %18, align 8
  %20 = zext i32 %17 to i64
  %21 = getelementptr inbounds ptr, ptr %19, i64 %20
  %22 = load ptr, ptr %21, align 8
  %.not11.i.i.i.i = icmp eq ptr %22, null
  br i1 %.not11.i.i.i.i, label %_ZNK14ArchiveBuilder17get_buffered_addrEPh.exit, label %.lr.ph.i.i.i.i

.lr.ph.i.i.i.i:                                   ; preds = %10, %30
  %23 = phi ptr [ %32, %30 ], [ %22, %10 ]
  %24 = load i32, ptr %23, align 8
  %25 = icmp eq i32 %24, %15
  br i1 %25, label %26, label %30

26:                                               ; preds = %.lr.ph.i.i.i.i
  %27 = getelementptr inbounds i8, ptr %23, i64 8
  %28 = load ptr, ptr %27, align 8
  %29 = icmp eq ptr %28, %3
  br i1 %29, label %_ZNK14ArchiveBuilder17get_buffered_addrEPh.exit, label %30

30:                                               ; preds = %26, %.lr.ph.i.i.i.i
  %31 = getelementptr inbounds i8, ptr %23, i64 72
  %32 = load ptr, ptr %31, align 8
  %.not.i.i.i.i = icmp eq ptr %32, null
  br i1 %.not.i.i.i.i, label %_ZNK14ArchiveBuilder17get_buffered_addrEPh.exit, label %.lr.ph.i.i.i.i, !llvm.loop !18

_ZNK14ArchiveBuilder17get_buffered_addrEPh.exit:  ; preds = %26, %30, %10
  %33 = phi ptr [ null, %10 ], [ %23, %26 ], [ null, %30 ]
  %.not.i.i = icmp eq ptr %33, null
  %34 = getelementptr inbounds i8, ptr %33, i64 16
  %.0.i.i = select i1 %.not.i.i, ptr null, ptr %34
  %35 = getelementptr inbounds i8, ptr %.0.i.i, i64 48
  %36 = load ptr, ptr %35, align 8
  store ptr %36, ptr %1, align 8
  br label %37

37:                                               ; preds = %_ZNK14ArchiveBuilder17get_buffered_addrEPh.exit, %2
  tail call void @_ZN16ArchivePtrMarker12mark_pointerEPPh(ptr noundef nonnull %1) #19
  ret void
}